{
  "main_library": {
    "exported_symbols": [
      {
        "data": {
          "global": [
            "__ZTI10ArcElement",
            "__ZTI18LineElementManager",
            "__ZTS15HorizontalCurve",
            "__ZTV10ArcElement",
            "__ZTV10RailwayAPI",
            "__ZTV18LineElementManager",
            "__ZTS12CurveElement",
            "__ZTV13VerticalCurve",
            "__ZTI15HorizontalCurve",
            "__ZTV15HorizontalCurve",
            "__ZTS18LineElementManager",
            "__ZTI12CurveElement",
            "__ZTV12CurveElement",
            "__ZTS10ArcElement",
            "__ZTI13VerticalCurve",
            "__ZTS13VerticalCurve",
            "__ZTI19StraightLineElement",
            "__ZTS19StraightLineElement",
            "__ZTS10RailwayAPI",
            "__ZTI10RailwayAPI",
            "__ZTV19StraightLineElement"
          ]
        },
        "text": {
          "global": [
            "__ZN18LineElementManager13CalTangentLenEddddb",
            "__ZN10BaseCalFun21PointToLineProjectionE11BasePoint2dS0_S0_Rd",
            "__ZN10RailwayAPI12TrsCkmlToCmlEPcRdRbS0_",
            "__ZN15HorizontalCurve11GetMilepostEdPcRiS0_",
            "__ZN10RailwayAPI15GetDesignHeightEdRdS0_",
            "__ZN10BaseCalFun13SplitMilepostEPKcRdPc",
            "__ZN18LineElementManagerC2Ev",
            "__ZN10RailwayAPID0Ev",
            "__ZN10BaseCalFun14KeepAngleIn2PIERd",
            "__ZN15HorizontalCurve18GetSumLengthOfMileEPcdRiS0_",
            "__ZN10RailwayAPI9GetLengthEv",
            "__ZN18LineElementManagerD0Ev",
            "__ZN10BaseCalFun9CalAngleXE11BasePoint2dS0_",
            "__ZN18LineElementManagerD1Ev",
            "__ZN10BaseCalFun19TransferPosReversalE11BasePoint2dS0_bd",
            "__ZN10RailwayAPID2Ev",
            "__ZN18LineElementManagerD2Ev",
            "__ZN15HorizontalCurve14TrsCmlDistToNEERKdS1_RdS2_S2_",
            "__ZN15HorizontalCurveC2Ev",
            "__ZN18LineElementManager11CalCurvePosEdd",
            "__ZN10RailwayAPI12TrsCmltoCkmlERKdPc",
            "__ZN10RailwayAPI14TrsNEToCmlDistERKdS1_RdS2_S2_",
            "__ZN15HorizontalCurve11PosBelongToE11BasePoint2d",
            "__ZN15HorizontalCurveC1Ev",
            "__ZN10RailwayAPI14TrsCmlDistToNEERKdS1_RdS2_S2_",
            "__ZN10RailwayAPI7SetDataEPK9tagJDInfojPK9tagDLInfojPK12tagSlopeInfoj",
            "__ZN15HorizontalCurveD0Ev",
            "__ZN19StraightLineElement19TrsCmlToNE_RelativeERKd",
            "__ZN18LineElementManager9SetJDDataEPK9tagJDInfoj",
            "__ZN15HorizontalCurve9GetLengthEv",
            "__ZN12CurveElement14TrsCmlDistToNEERKdS1_RdS2_S2_",
            "__ZN19StraightLineElement14TrsCmlDistToNEERKdS1_RdS2_S2_",
            "__ZN10ArcElement19TrsCmlToNE_RelativeERKd",
            "__ZN10ArcElement14TrsNEToCmlDistERKdS1_RdS2_S2_",
            "__ZN10RailwayAPID1Ev",
            "__ZN12CurveElement22TrsCmlToAngle_RelativeERKd",
            "__ZN12CurveElement19TrsCmlToNE_RelativeERKd",
            "__ZN10RailwayAPIC2Ev",
            "__ZN13VerticalCurve14TrsCmlToHeightERKdRdS2_",
            "__ZN15HorizontalCurveD2Ev",
            "__ZN10ArcElement14TrsCmlDistToNEERKdS1_RdS2_S2_",
            "__ZN10BaseCalFun11TransferPosE11BasePoint2dS0_bd",
            "__ZN18LineElementManager9ResetDataEv",
            "__ZN15HorizontalCurveD1Ev",
            "__ZN10BaseCalFun16MileCharacterStrEPKcdibPc",
            "__ZN10BaseCalFun12CalTurnAngleE11BasePoint2dS0_S0_",
            "__ZN12CurveElement14TrsCmlToHeightERKdRdS2_",
            "__ZN19StraightLineElement14TrsCmlToHeightERKdRdS2_",
            "__ZN19StraightLineElement14TrsNEToCmlDistERKdS1_RdS2_S2_",
            "__ZN15HorizontalCurve9SetDLDataEPK9tagDLInfoj",
            "__ZN13VerticalCurve11CmlBelongToEd",
            "__ZN15HorizontalCurve11CmlBelongToEd",
            "__ZN10ArcElement14TrsCmlToHeightERKdRdS2_",
            "__ZN15HorizontalCurve12TrsCkmlToCmlEPcRdRbS0_",
            "__ZN10BaseCalFun16CalDecimalDigitsEd",
            "__ZN15HorizontalCurve12TrsCmltoCkmlERKdPc",
            "__ZN15HorizontalCurve14TrsNEToCmlDistERKdS1_RdS2_S2_",
            "__ZN12CurveElement14TrsNEToCmlDistERKdS1_RdS2_S2_",
            "__ZN10RailwayAPIC1Ev",
            "__ZN10ArcElement22TrsCmlToAngle_RelativeERKd",
            "__ZN13VerticalCurve12SetSlopeDataEPK12tagSlopeInfoj"
          ]
        }
      }
    ],
    "flags": [
      {
        "attributes": [
          "not_app_extension_safe"
        ]
      }
    ],
    "install_names": [
      {
        "name": "/usr/local/lib/libRailwayAPI.dylib"
      }
    ],
    "target_info": [
      {
        "min_deployment": "14",
        "target": "arm64-macos"
      }
    ]
  },
  "tapi_tbd_version": 5
}
